target datalayout = "e-m:e-p270:32:32-p271:32:32-p272:64:64-i64:64-i128:128-f80:128-n8:16:32:64-S128"
target triple = "x86_64-pc-linux-gnu"

%"class.sat::literal" = type { i32 }
%"class.pb::pbc" = type <{ %"class.pb::constraint", i32, i32, i32, [0 x %"struct.std::pair"], [4 x i8] }>
%"class.pb::constraint" = type { ptr, i32, i8, %"class.sat::literal", %"class.sat::literal", i32, i32, i32, i64, i8, i32, i8, i32 }
%"struct.std::pair" = type { i32, %"class.sat::literal" }
%"struct.sat::config" = type <{ i64, i32, i32, i32, i8, [3 x i8], i32, i32, double, i32, i8, [3 x i8], i32, i8, [3 x i8], i32, [4 x i8], double, double, i32, i32, double, double, i32, [4 x i8], %class.symbol, double, i32, i32, i8, [3 x i8], i32, i32, i8, [3 x i8], i32, i8, [3 x i8], i32, i8, [3 x i8], i32, i8, i8, [2 x i8], i32, i8, i8, i8, i8, i8, i8, i8, i8, i32, i8, i8, i8, i8, i32, double, i32, [4 x i8], double, double, double, double, i32, i8, i8, [2 x i8], double, i8, i8, [2 x i8], i32, double, i32, i32, i32, i32, i32, i32, i32, i32, i8, i8, i8, i8, i32, i32, i8, i8, i8, i8, i8, i8, i8, [5 x i8], %class.symbol, i8, i8, i8, i8, i8, i8, [2 x i8], i32, i32, i32, i8, [3 x i8], double, double, double, double, double, i8, [7 x i8] }>
%class.symbol = type { ptr }

; Function Attrs: mustprogress nounwind uwtable
define linkonce_odr hidden noundef ptr @_ZNK2pb3pbc3endEv(ptr noundef nonnull align 8 dereferenceable(76) %0) #4 comdat align 2 {
  %2 = alloca ptr, align 8
  store ptr %0, ptr %2, align 8, !tbaa !8
  %3 = load ptr, ptr %2, align 8
  %4 = call noundef ptr @_ZNK2pb3pbc5beginEv(ptr noundef nonnull align 8 dereferenceable(76) %3)
  %5 = getelementptr inbounds nuw %"class.pb::constraint", ptr %3, i32 0, i32 7
  %6 = load i32, ptr %5, align 8, !tbaa !41
  %7 = zext i32 %6 to i64
  %8 = getelementptr inbounds nuw %"struct.std::pair", ptr %4, i64 %7
  ret ptr %8
}

; Function Attrs: mustprogress nounwind uwtable
define linkonce_odr hidden noundef ptr @_ZNK2pb3pbc5beginEv(ptr noundef nonnull align 8 dereferenceable(76) %0) #4 comdat align 2 {
  %2 = alloca ptr, align 8
  store ptr %0, ptr %2, align 8, !tbaa !8
  %3 = load ptr, ptr %2, align 8
  %4 = getelementptr inbounds nuw %"class.pb::pbc", ptr %3, i32 0, i32 4
  %5 = getelementptr inbounds [0 x %"struct.std::pair"], ptr %4, i64 0, i64 0
  ret ptr %5
}

; Function Attrs: mustprogress nounwind uwtable
define linkonce_odr hidden noundef i32 @_ZNK2pb10constraint1kEv(ptr noundef nonnull align 8 dereferenceable(64) %0) #4 comdat align 2 {
  %2 = alloca ptr, align 8
  store ptr %0, ptr %2, align 8, !tbaa !3
  %3 = load ptr, ptr %2, align 8
  %4 = getelementptr inbounds nuw %"class.pb::constraint", ptr %3, i32 0, i32 12
  %5 = load i32, ptr %4, align 4, !tbaa !46
  ret i32 %5
}

; Function Attrs: mustprogress uwtable
define hidden noundef double @_ZNK2pb3pbc10get_rewardERKNS_16solver_interfaceERN3sat16literal_occs_funE(ptr noundef nonnull align 8 dereferenceable(76) %0, ptr noundef nonnull align 8 dereferenceable(8) %1, ptr noundef nonnull align 8 dereferenceable(8) %2) unnamed_addr #5 align 2 {
  %4 = alloca double, align 8
  %5 = alloca ptr, align 8
  %6 = alloca ptr, align 8
  %7 = alloca ptr, align 8
  %8 = alloca i32, align 4
  %9 = alloca i32, align 4
  %10 = alloca i8, align 1
  %11 = alloca double, align 8
  %12 = alloca double, align 8
  %13 = alloca ptr, align 8
  %14 = alloca ptr, align 8
  %15 = alloca ptr, align 8
  %16 = alloca i32, align 4
  %17 = alloca %"struct.std::pair", align 4
  %18 = alloca %"class.sat::literal", align 4
  %19 = alloca i32, align 4
  %20 = alloca %"class.sat::literal", align 4
  %21 = alloca %"class.sat::literal", align 4
  %22 = alloca double, align 8
  store ptr %0, ptr %5, align 8, !tbaa !8
  store ptr %1, ptr %6, align 8, !tbaa !65
  store ptr %2, ptr %7, align 8, !tbaa !67
  %23 = load ptr, ptr %5, align 8
  call void @llvm.lifetime.start.p0(i64 4, ptr %8) #3
  %24 = call noundef i32 @_ZNK2pb10constraint1kEv(ptr noundef nonnull align 8 dereferenceable(64) %23)
  store i32 %24, ptr %8, align 4, !tbaa !10
  call void @llvm.lifetime.start.p0(i64 4, ptr %9) #3
  store i32 0, ptr %9, align 4, !tbaa !10
  call void @llvm.lifetime.start.p0(i64 1, ptr %10) #3
  %25 = load ptr, ptr %6, align 8, !tbaa !65
  %26 = load ptr, ptr %25, align 8, !tbaa !15
  %27 = getelementptr inbounds ptr, ptr %26, i64 12
  %28 = load ptr, ptr %27, align 8
  %29 = call noundef nonnull align 8 dereferenceable(409) ptr %28(ptr noundef nonnull align 8 dereferenceable(8) %25)
  %30 = getelementptr inbounds nuw %"struct.sat::config", ptr %29, i32 0, i32 67
  %31 = load i32, ptr %30, align 8, !tbaa !69
  %32 = icmp eq i32 %31, 2
  %33 = zext i1 %32 to i8
  store i8 %33, ptr %10, align 1, !tbaa !83
  call void @llvm.lifetime.start.p0(i64 8, ptr %11) #3
  %34 = load i8, ptr %10, align 1, !tbaa !83, !range !84, !noundef !85
  %35 = trunc i8 %34 to i1
  %36 = select i1 %35, i32 0, i32 1
  %37 = sitofp i32 %36 to double
  store double %37, ptr %11, align 8, !tbaa !86
  call void @llvm.lifetime.start.p0(i64 8, ptr %12) #3
  store double 0.000000e+00, ptr %12, align 8, !tbaa !86
  call void @llvm.lifetime.start.p0(i64 8, ptr %13) #3
  store ptr %23, ptr %13, align 8, !tbaa !8
  call void @llvm.lifetime.start.p0(i64 8, ptr %14) #3
  %38 = load ptr, ptr %13, align 8, !tbaa !8
  %39 = call noundef ptr @_ZNK2pb3pbc5beginEv(ptr noundef nonnull align 8 dereferenceable(76) %38)
  store ptr %39, ptr %14, align 8, !tbaa !47
  call void @llvm.lifetime.start.p0(i64 8, ptr %15) #3
  %40 = load ptr, ptr %13, align 8, !tbaa !8
  %41 = call noundef ptr @_ZNK2pb3pbc3endEv(ptr noundef nonnull align 8 dereferenceable(76) %40)
  store ptr %41, ptr %15, align 8, !tbaa !47
  br label %42

42:                                               ; preds = %91, %3
  %43 = load ptr, ptr %14, align 8, !tbaa !47
  %44 = load ptr, ptr %15, align 8, !tbaa !47
  %45 = icmp ne ptr %43, %44
  br i1 %45, label %47, label %46

46:                                               ; preds = %42
  store i32 2, ptr %16, align 4
  br label %94

47:                                               ; preds = %42
  call void @llvm.lifetime.start.p0(i64 8, ptr %17) #3
  %48 = load ptr, ptr %14, align 8, !tbaa !47
  call void @llvm.memcpy.p0.p0.i64(ptr align 4 %17, ptr align 4 %48, i64 8, i1 false)
  call void @llvm.lifetime.start.p0(i64 4, ptr %18) #3
  %49 = getelementptr inbounds nuw %"struct.std::pair", ptr %17, i32 0, i32 1
  call void @llvm.memcpy.p0.p0.i64(ptr align 4 %18, ptr align 4 %49, i64 4, i1 false), !tbaa.struct !14
  call void @llvm.lifetime.start.p0(i64 4, ptr %19) #3
  %50 = getelementptr inbounds nuw %"struct.std::pair", ptr %17, i32 0, i32 0
  %51 = load i32, ptr %50, align 4, !tbaa !26
  store i32 %51, ptr %19, align 4, !tbaa !10
  %52 = load ptr, ptr %6, align 8, !tbaa !65
  call void @llvm.memcpy.p0.p0.i64(ptr align 4 %20, ptr align 4 %18, i64 4, i1 false), !tbaa.struct !14
  %53 = getelementptr inbounds nuw %"class.sat::literal", ptr %20, i32 0, i32 0
  %54 = load i32, ptr %53, align 4
  %55 = load ptr, ptr %52, align 8, !tbaa !15
  %56 = getelementptr inbounds ptr, ptr %55, i64 3
  %57 = load ptr, ptr %56, align 8
  %58 = call noundef i32 %57(ptr noundef nonnull align 8 dereferenceable(8) %52, i32 %54)
  switch i32 %58, label %84 [
    i32 1, label %59
    i32 0, label %65
    i32 -1, label %84
  ]

59:                                               ; preds = %47
  %60 = load i32, ptr %8, align 4, !tbaa !10
  %61 = load i32, ptr %19, align 4, !tbaa !10
  %62 = icmp ule i32 %60, %61
  br i1 %62, label %63, label %64

63:                                               ; preds = %59
  store double 0.000000e+00, ptr %4, align 8
  store i32 1, ptr %16, align 4
  br label %85

64:                                               ; preds = %59
  br label %65

65:                                               ; preds = %47, %64
  %66 = load i8, ptr %10, align 1, !tbaa !83, !range !84, !noundef !85
  %67 = trunc i8 %66 to i1
  br i1 %67, label %68, label %78

68:                                               ; preds = %65
  %69 = load ptr, ptr %7, align 8, !tbaa !67
  call void @llvm.memcpy.p0.p0.i64(ptr align 4 %21, ptr align 4 %18, i64 4, i1 false), !tbaa.struct !14
  %70 = getelementptr inbounds nuw %"class.sat::literal", ptr %21, i32 0, i32 0
  %71 = load i32, ptr %70, align 4
  %72 = load ptr, ptr %69, align 8, !tbaa !15
  %73 = getelementptr inbounds ptr, ptr %72, i64 0
  %74 = load ptr, ptr %73, align 8
  %75 = call noundef double %74(ptr noundef nonnull align 8 dereferenceable(8) %69, i32 %71)
  %76 = load double, ptr %11, align 8, !tbaa !86
  %77 = fadd double %76, %75
  store double %77, ptr %11, align 8, !tbaa !86
  br label %78

78:                                               ; preds = %68, %65
  %79 = load double, ptr %12, align 8, !tbaa !86
  %80 = fadd double %79, 1.000000e+00
  store double %80, ptr %12, align 8, !tbaa !86
  %81 = load i32, ptr %19, align 4, !tbaa !10
  %82 = load i32, ptr %9, align 4, !tbaa !10
  %83 = add i32 %82, %81
  store i32 %83, ptr %9, align 4, !tbaa !10
  br label %84

84:                                               ; preds = %47, %47, %78
  store i32 0, ptr %16, align 4
  br label %85

85:                                               ; preds = %84, %63
  call void @llvm.lifetime.end.p0(i64 4, ptr %19) #3
  call void @llvm.lifetime.end.p0(i64 4, ptr %18) #3
  %86 = load i32, ptr %16, align 4
  switch i32 %86, label %88 [
    i32 0, label %87
  ]

87:                                               ; preds = %85
  store i32 0, ptr %16, align 4
  br label %88

88:                                               ; preds = %87, %85
  call void @llvm.lifetime.end.p0(i64 8, ptr %17) #3
  %89 = load i32, ptr %16, align 4
  switch i32 %89, label %94 [
    i32 0, label %90
  ]

90:                                               ; preds = %88
  br label %91

91:                                               ; preds = %90
  %92 = load ptr, ptr %14, align 8, !tbaa !47
  %93 = getelementptr inbounds nuw %"struct.std::pair", ptr %92, i32 1
  store ptr %93, ptr %14, align 8, !tbaa !47
  br label %42

94:                                               ; preds = %88, %46
  call void @llvm.lifetime.end.p0(i64 8, ptr %15) #3
  call void @llvm.lifetime.end.p0(i64 8, ptr %14) #3
  call void @llvm.lifetime.end.p0(i64 8, ptr %13) #3
  %95 = load i32, ptr %16, align 4
  switch i32 %95, label %119 [
    i32 2, label %96
  ]

96:                                               ; preds = %94
  %97 = load i32, ptr %8, align 4, !tbaa !10
  %98 = load i32, ptr %9, align 4, !tbaa !10
  %99 = icmp uge i32 %97, %98
  br i1 %99, label %103, label %100

100:                                              ; preds = %96
  %101 = load double, ptr %12, align 8, !tbaa !86
  %102 = fcmp oeq double 0.000000e+00, %101
  br i1 %102, label %103, label %104

103:                                              ; preds = %100, %96
  store double 0.000000e+00, ptr %4, align 8
  store i32 1, ptr %16, align 4
  br label %119

104:                                              ; preds = %100
  call void @llvm.lifetime.start.p0(i64 8, ptr %22) #3
  %105 = load i32, ptr %9, align 4, !tbaa !10
  %106 = uitofp i32 %105 to double
  %107 = load double, ptr %12, align 8, !tbaa !86
  %108 = fdiv double %106, %107
  store double %108, ptr %22, align 8, !tbaa !86
  %109 = load i32, ptr %9, align 4, !tbaa !10
  %110 = load i32, ptr %8, align 4, !tbaa !10
  %111 = sub i32 %109, %110
  %112 = add i32 %111, 1
  %113 = uitofp i32 %112 to double
  %114 = load double, ptr %22, align 8, !tbaa !86
  %115 = fdiv double %113, %114
  %116 = call double @pow(double noundef 5.000000e-01, double noundef %115) #3, !tbaa !10
  %117 = load double, ptr %11, align 8, !tbaa !86
  %118 = fmul double %116, %117
  store double %118, ptr %4, align 8
  store i32 1, ptr %16, align 4
  call void @llvm.lifetime.end.p0(i64 8, ptr %22) #3
  br label %119

119:                                              ; preds = %104, %103, %94
  call void @llvm.lifetime.end.p0(i64 8, ptr %12) #3
  call void @llvm.lifetime.end.p0(i64 8, ptr %11) #3
  call void @llvm.lifetime.end.p0(i64 1, ptr %10) #3
  call void @llvm.lifetime.end.p0(i64 4, ptr %9) #3
  call void @llvm.lifetime.end.p0(i64 4, ptr %8) #3
  %120 = load double, ptr %4, align 8
  ret double %120
}