; Function Attrs: mustprogress uwtable
define hidden noundef double @_ZNK2pb3pbc10get_rewardERKNS_16solver_interfaceERN3sat16literal_occs_funE(ptr noundef nonnull readonly align 8 captures(address) dereferenceable(76) %0, ptr noundef nonnull align 8 dereferenceable(8) %1, ptr noundef nonnull align 8 dereferenceable(8) %2) unnamed_addr #4 align 2 {
  %4 = getelementptr inbounds nuw i8, ptr %0, i64 60
  %5 = load i32, ptr %4, align 4, !tbaa !25
  %6 = load ptr, ptr %1, align 8, !tbaa !26
  %7 = getelementptr inbounds nuw i8, ptr %6, i64 96
  %8 = load ptr, ptr %7, align 8
  %9 = tail call noundef nonnull align 8 dereferenceable(409) ptr %8(ptr noundef nonnull align 8 dereferenceable(8) %1)
  %10 = getelementptr inbounds nuw i8, ptr %9, i64 248
  %11 = load i32, ptr %10, align 8, !tbaa !49
  %.fr81 = freeze i32 %11
  %12 = icmp ne i32 %.fr81, 2
  %13 = uitofp i1 %12 to double
  %14 = getelementptr inbounds nuw i8, ptr %0, i64 32
  %15 = load i32, ptr %14, align 8, !tbaa !20
  %16 = zext i32 %15 to i64
  %.idx = shl nuw nsw i64 %16, 3
  %17 = getelementptr inbounds nuw i8, ptr %0, i64 %.idx
  %.ptr80 = getelementptr inbounds nuw i8, ptr %17, i64 76
  %.not71 = icmp eq i32 %15, 0
  br i1 %.not71, label %.loopexit, label %.lr.ph

.lr.ph:                                           ; preds = %3
  %.ptr = getelementptr inbounds nuw i8, ptr %0, i64 76
  br i1 %12, label %.lr.ph.split.us, label %.lr.ph.split

.lr.ph.split.us:                                  ; preds = %.lr.ph, %26
  %.03775.us = phi i32 [ %.340.ph.us, %26 ], [ 0, %.lr.ph ]
  %.04573.us = phi double [ %.348.ph.us, %26 ], [ 0.000000e+00, %.lr.ph ]
  %.04972.us = phi ptr [ %27, %26 ], [ %.ptr, %.lr.ph ]
  %.sroa.08.0.copyload.us = load i32, ptr %.04972.us, align 4
  %.sroa.4.0..sroa_idx.us = getelementptr inbounds nuw i8, ptr %.04972.us, i64 4
  %.sroa.4.0.copyload.us = load i32, ptr %.sroa.4.0..sroa_idx.us, align 4
  %18 = load ptr, ptr %1, align 8, !tbaa !26
  %19 = getelementptr inbounds nuw i8, ptr %18, i64 24
  %20 = load ptr, ptr %19, align 8
  %21 = tail call noundef i32 %20(ptr noundef nonnull align 8 dereferenceable(8) %1, i32 %.sroa.4.0.copyload.us)
  switch i32 %21, label %26 [
    i32 1, label %22
    i32 0, label %23
  ]

22:                                               ; preds = %.lr.ph.split.us
  %.not53.us = icmp ugt i32 %5, %.sroa.08.0.copyload.us
  br i1 %.not53.us, label %23, label %.loopexit

23:                                               ; preds = %22, %.lr.ph.split.us
  %24 = fadd double %.04573.us, 1.000000e+00
  %25 = add i32 %.sroa.08.0.copyload.us, %.03775.us
  br label %26

26:                                               ; preds = %23, %.lr.ph.split.us
  %.348.ph.us = phi double [ %24, %23 ], [ %.04573.us, %.lr.ph.split.us ]
  %.340.ph.us = phi i32 [ %25, %23 ], [ %.03775.us, %.lr.ph.split.us ]
  %27 = getelementptr inbounds nuw i8, ptr %.04972.us, i64 8
  %.not.us = icmp eq ptr %27, %.ptr80
  br i1 %.not.us, label %._crit_edge, label %.lr.ph.split.us

.lr.ph.split:                                     ; preds = %.lr.ph, %40
  %.03775 = phi i32 [ %.340.ph, %40 ], [ 0, %.lr.ph ]
  %.04174 = phi double [ %.344.ph, %40 ], [ %13, %.lr.ph ]
  %.04573 = phi double [ %.348.ph, %40 ], [ 0.000000e+00, %.lr.ph ]
  %.04972 = phi ptr [ %41, %40 ], [ %.ptr, %.lr.ph ]
  %.sroa.08.0.copyload = load i32, ptr %.04972, align 4
  %.sroa.4.0..sroa_idx = getelementptr inbounds nuw i8, ptr %.04972, i64 4
  %.sroa.4.0.copyload = load i32, ptr %.sroa.4.0..sroa_idx, align 4
  %28 = load ptr, ptr %1, align 8, !tbaa !26
  %29 = getelementptr inbounds nuw i8, ptr %28, i64 24
  %30 = load ptr, ptr %29, align 8
  %31 = tail call noundef i32 %30(ptr noundef nonnull align 8 dereferenceable(8) %1, i32 %.sroa.4.0.copyload)
  switch i32 %31, label %40 [
    i32 1, label %32
    i32 0, label %33
  ]

32:                                               ; preds = %.lr.ph.split
  %.not53 = icmp ugt i32 %5, %.sroa.08.0.copyload
  br i1 %.not53, label %33, label %.loopexit

33:                                               ; preds = %32, %.lr.ph.split
  %34 = load ptr, ptr %2, align 8, !tbaa !26
  %35 = load ptr, ptr %34, align 8
  %36 = tail call noundef double %35(ptr noundef nonnull align 8 dereferenceable(8) %2, i32 %.sroa.4.0.copyload)
  %37 = fadd double %.04174, %36
  %38 = fadd double %.04573, 1.000000e+00
  %39 = add i32 %.sroa.08.0.copyload, %.03775
  br label %40

40:                                               ; preds = %33, %.lr.ph.split
  %.348.ph = phi double [ %38, %33 ], [ %.04573, %.lr.ph.split ]
  %.344.ph = phi double [ %37, %33 ], [ %.04174, %.lr.ph.split ]
  %.340.ph = phi i32 [ %39, %33 ], [ %.03775, %.lr.ph.split ]
  %41 = getelementptr inbounds nuw i8, ptr %.04972, i64 8
  %.not = icmp eq ptr %41, %.ptr80
  br i1 %.not, label %._crit_edge, label %.lr.ph.split

._crit_edge:                                      ; preds = %40, %26
  %.045.lcssa = phi double [ %.348.ph.us, %26 ], [ %.348.ph, %40 ]
  %.041.lcssa = phi double [ %13, %26 ], [ %.344.ph, %40 ]
  %.037.lcssa = phi i32 [ %.340.ph.us, %26 ], [ %.340.ph, %40 ]
  %42 = icmp uge i32 %5, %.037.lcssa
  %43 = fcmp oeq double %.045.lcssa, 0.000000e+00
  %or.cond = select i1 %42, i1 true, i1 %43
  br i1 %or.cond, label %.loopexit, label %44

44:                                               ; preds = %._crit_edge
  %45 = uitofp i32 %.037.lcssa to double
  %46 = fdiv double %45, %.045.lcssa
  %reass.sub = sub nuw i32 %.037.lcssa, %5
  %47 = add i32 %reass.sub, 1
  %48 = uitofp i32 %47 to double
  %49 = fneg double %48
  %mul = fdiv double %49, %46
  %exp2 = tail call double @exp2(double %mul)
  %50 = fmul double %.041.lcssa, %exp2
  br label %.loopexit

.loopexit:                                        ; preds = %32, %22, %3, %._crit_edge, %44
  %.3 = phi double [ %50, %44 ], [ 0.000000e+00, %._crit_edge ], [ 0.000000e+00, %3 ], [ 0.000000e+00, %22 ], [ 0.000000e+00, %32 ]
  ret double %.3
}